target datalayout = "e-m:e-p270:32:32-p271:32:32-p272:64:64-i64:64-i128:128-f80:128-n8:16:32:64-S128"
target triple = "x86_64-pc-linux-gnu"

; Function Attrs: nounwind uwtable
define internal i64 @computeIterativeZipfian(ptr noundef %0, i64 noundef %1, double noundef %2) #0 {
  %4 = alloca i64, align 8
  %5 = alloca ptr, align 8
  %6 = alloca i64, align 8
  %7 = alloca double, align 8
  %8 = alloca double, align 8
  %9 = alloca double, align 8
  %10 = alloca double, align 8
  %11 = alloca double, align 8
  %12 = alloca double, align 8
  %13 = alloca i32, align 4
  store ptr %0, ptr %5, align 8
  store i64 %1, ptr %6, align 8
  store double %2, ptr %7, align 8
  call void @llvm.lifetime.start.p0(i64 8, ptr %8) #14
  %14 = load double, ptr %7, align 8
  %15 = fsub double %14, 1.000000e+00
  %16 = call double @pow(double noundef 2.000000e+00, double noundef %15) #14
  store double %16, ptr %8, align 8
  call void @llvm.lifetime.start.p0(i64 8, ptr %9) #14
  call void @llvm.lifetime.start.p0(i64 8, ptr %10) #14
  call void @llvm.lifetime.start.p0(i64 8, ptr %11) #14
  call void @llvm.lifetime.start.p0(i64 8, ptr %12) #14
  %17 = load i64, ptr %6, align 8
  %18 = icmp sle i64 %17, 1
  br i1 %18, label %19, label %20

19:                                               ; preds = %3
  store i64 1, ptr %4, align 8
  store i32 1, ptr %13, align 4
  br label %62

20:                                               ; preds = %3
  br label %21

21:                                               ; preds = %58, %20
  br label %22

22:                                               ; preds = %21
  %23 = load ptr, ptr %5, align 8
  %24 = call double @pg_prng_double(ptr noundef %23)
  store double %24, ptr %11, align 8
  %25 = load ptr, ptr %5, align 8
  %26 = call double @pg_prng_double(ptr noundef %25)
  store double %26, ptr %12, align 8
  %27 = load double, ptr %11, align 8
  %28 = load double, ptr %7, align 8
  %29 = fsub double %28, 1.000000e+00
  %30 = fdiv double -1.000000e+00, %29
  %31 = call double @pow(double noundef %27, double noundef %30) #14
  %32 = call double @llvm.floor.f64(double %31)
  store double %32, ptr %9, align 8
  %33 = load double, ptr %9, align 8
  %34 = fdiv double 1.000000e+00, %33
  %35 = fadd double 1.000000e+00, %34
  %36 = load double, ptr %7, align 8
  %37 = fsub double %36, 1.000000e+00
  %38 = call double @pow(double noundef %35, double noundef %37) #14
  store double %38, ptr %10, align 8
  %39 = load double, ptr %12, align 8
  %40 = load double, ptr %9, align 8
  %41 = fmul double %39, %40
  %42 = load double, ptr %10, align 8
  %43 = fsub double %42, 1.000000e+00
  %44 = fmul double %41, %43
  %45 = load double, ptr %8, align 8
  %46 = fsub double %45, 1.000000e+00
  %47 = fdiv double %44, %46
  %48 = load double, ptr %10, align 8
  %49 = load double, ptr %8, align 8
  %50 = fdiv double %48, %49
  %51 = fcmp ole double %47, %50
  br i1 %51, label %52, label %58

52:                                               ; preds = %22
  %53 = load double, ptr %9, align 8
  %54 = load i64, ptr %6, align 8
  %55 = sitofp i64 %54 to double
  %56 = fcmp ole double %53, %55
  br i1 %56, label %57, label %58

57:                                               ; preds = %52
  br label %59

58:                                               ; preds = %52, %22
  br label %21

59:                                               ; preds = %57
  %60 = load double, ptr %9, align 8
  %61 = fptosi double %60 to i64
  store i64 %61, ptr %4, align 8
  store i32 1, ptr %13, align 4
  br label %62

62:                                               ; preds = %59, %19
  call void @llvm.lifetime.end.p0(i64 8, ptr %12) #14
  call void @llvm.lifetime.end.p0(i64 8, ptr %11) #14
  call void @llvm.lifetime.end.p0(i64 8, ptr %10) #14
  call void @llvm.lifetime.end.p0(i64 8, ptr %9) #14
  call void @llvm.lifetime.end.p0(i64 8, ptr %8) #14
  %63 = load i64, ptr %4, align 8
  ret i64 %63
}

; Function Attrs: nounwind uwtable
define internal i64 @getZipfianRand(ptr noundef %0, i64 noundef %1, i64 noundef %2, double noundef %3) #0 {
  %5 = alloca ptr, align 8
  %6 = alloca i64, align 8
  %7 = alloca i64, align 8
  %8 = alloca double, align 8
  %9 = alloca i64, align 8
  store ptr %0, ptr %5, align 8
  store i64 %1, ptr %6, align 8
  store i64 %2, ptr %7, align 8
  store double %3, ptr %8, align 8
  call void @llvm.lifetime.start.p0(i64 8, ptr %9) #14
  %10 = load i64, ptr %7, align 8
  %11 = load i64, ptr %6, align 8
  %12 = sub i64 %10, %11
  %13 = add i64 %12, 1
  store i64 %13, ptr %9, align 8
  %14 = load i64, ptr %6, align 8
  %15 = sub i64 %14, 1
  %16 = load ptr, ptr %5, align 8
  %17 = load i64, ptr %9, align 8
  %18 = load double, ptr %8, align 8
  %19 = call i64 @computeIterativeZipfian(ptr noundef %16, i64 noundef %17, double noundef %18)
  %20 = add i64 %15, %19
  call void @llvm.lifetime.end.p0(i64 8, ptr %9) #14
  ret i64 %20
}