; Function Attrs: nounwind uwtable
define internal fastcc i64 @getZipfianRand(ptr noundef %0, i64 noundef %1, i64 noundef %2, double noundef %3) unnamed_addr #0 {
  %5 = sub i64 %2, %1
  %6 = add i64 %5, 1
  %7 = fadd double %3, -1.000000e+00
  %exp2.i = tail call double @exp2(double %7) #25
  %8 = icmp slt i64 %6, 2
  br i1 %8, label %computeIterativeZipfian.exit, label %.preheader.i

.preheader.i:                                     ; preds = %4
  %9 = fdiv double -1.000000e+00, %7
  %10 = fadd double %exp2.i, -1.000000e+00
  %11 = uitofp nneg i64 %6 to double
  br label %12

12:                                               ; preds = %12, %.preheader.i
  %13 = tail call double @pg_prng_double(ptr noundef %0) #25
  %14 = tail call double @pg_prng_double(ptr noundef %0) #25
  %15 = tail call double @pow(double noundef %13, double noundef %9) #25
  %16 = tail call double @llvm.floor.f64(double %15)
  %17 = fdiv double 1.000000e+00, %16
  %18 = fadd double %17, 1.000000e+00
  %19 = tail call double @pow(double noundef %18, double noundef %7) #25
  %20 = fmul double %14, %16
  %21 = fadd double %19, -1.000000e+00
  %22 = fmul double %20, %21
  %23 = fdiv double %22, %10
  %24 = fdiv double %19, %exp2.i
  %25 = fcmp ugt double %23, %24
  %26 = fcmp ugt double %16, %11
  %or.cond.i = or i1 %26, %25
  br i1 %or.cond.i, label %12, label %27

27:                                               ; preds = %12
  %28 = fptosi double %16 to i64
  br label %computeIterativeZipfian.exit

computeIterativeZipfian.exit:                     ; preds = %4, %27
  %.0.i = phi i64 [ %28, %27 ], [ 1, %4 ]
  %29 = add i64 %1, -1
  %30 = add i64 %29, %.0.i
  ret i64 %30
}